target datalayout = "e-m:e-p270:32:32-p271:32:32-p272:64:64-i64:64-i128:128-f80:128-n8:16:32:64-S128"
target triple = "x86_64-pc-linux-gnu"

%struct.AVTextFormatContext = type { ptr, ptr, ptr, ptr, ptr, ptr, i32, i32, [12 x i32], [12 x [100 x i32]], [12 x ptr], [12 x %struct.AVBPrint], i32, i32, i32, i32, i32, ptr, i32, ptr, i32 }
%struct.AVBPrint = type { ptr, i32, i32, i32, [1 x i8], [1000 x i8] }
%struct.DefaultContext = type { ptr, i32, i32, [12 x i32] }

@.str.13 = private unnamed_addr constant [6 x i8] c"%s%s=\00", align 1
@.str.15 = private unnamed_addr constant [4 x i8] c"%s\0A\00", align 1

; Function Attrs: nounwind uwtable
define internal void @default_print_str(ptr noundef %0, ptr noundef %1, ptr noundef %2) #0 {
  %4 = alloca ptr, align 8
  %5 = alloca ptr, align 8
  %6 = alloca ptr, align 8
  %7 = alloca ptr, align 8
  store ptr %0, ptr %4, align 8, !tbaa !4
  store ptr %1, ptr %5, align 8, !tbaa !33
  store ptr %2, ptr %6, align 8, !tbaa !33
  call void @llvm.lifetime.start.p0(i64 8, ptr %7) #6
  %8 = load ptr, ptr %4, align 8, !tbaa !4
  %9 = getelementptr inbounds nuw %struct.AVTextFormatContext, ptr %8, i32 0, i32 4
  %10 = load ptr, ptr %9, align 8, !tbaa !10
  store ptr %10, ptr %7, align 8, !tbaa !19
  %11 = load ptr, ptr %7, align 8, !tbaa !19
  %12 = getelementptr inbounds nuw %struct.DefaultContext, ptr %11, i32 0, i32 1
  %13 = load i32, ptr %12, align 8, !tbaa !36
  %14 = icmp ne i32 %13, 0
  br i1 %14, label %27, label %15

15:                                               ; preds = %3
  %16 = load ptr, ptr %4, align 8, !tbaa !4
  %17 = load ptr, ptr %4, align 8, !tbaa !4
  %18 = getelementptr inbounds nuw %struct.AVTextFormatContext, ptr %17, i32 0, i32 11
  %19 = load ptr, ptr %4, align 8, !tbaa !4
  %20 = getelementptr inbounds nuw %struct.AVTextFormatContext, ptr %19, i32 0, i32 7
  %21 = load i32, ptr %20, align 4, !tbaa !21
  %22 = sext i32 %21 to i64
  %23 = getelementptr inbounds [12 x %struct.AVBPrint], ptr %18, i64 0, i64 %22
  %24 = getelementptr inbounds nuw %struct.AVBPrint, ptr %23, i32 0, i32 0
  %25 = load ptr, ptr %24, align 8, !tbaa !27
  %26 = load ptr, ptr %5, align 8, !tbaa !33
  call void (ptr, ptr, ...) @writer_printf(ptr noundef %16, ptr noundef @.str.13, ptr noundef %25, ptr noundef %26)
  br label %27

27:                                               ; preds = %15, %3
  %28 = load ptr, ptr %4, align 8, !tbaa !4
  %29 = load ptr, ptr %6, align 8, !tbaa !33
  call void (ptr, ptr, ...) @writer_printf(ptr noundef %28, ptr noundef @.str.15, ptr noundef %29)
  call void @llvm.lifetime.end.p0(i64 8, ptr %7) #6
  ret void
}