; Function Attrs: nounwind uwtable
define internal void @default_print_str(ptr noundef readonly captures(none) %0, ptr noundef %1, ptr noundef %2) #0 {
  %4 = getelementptr inbounds nuw i8, ptr %0, i64 32
  %5 = load ptr, ptr %4, align 8, !tbaa !4
  %6 = getelementptr inbounds nuw i8, ptr %5, i64 8
  %7 = load i32, ptr %6, align 8, !tbaa !31
  %.not = icmp eq i32 %7, 0
  br i1 %.not, label %8, label %15

8:                                                ; preds = %3
  %9 = getelementptr inbounds nuw i8, ptr %0, i64 5000
  %10 = getelementptr inbounds nuw i8, ptr %0, i64 52
  %11 = load i32, ptr %10, align 4, !tbaa !16
  %12 = sext i32 %11 to i64
  %13 = getelementptr inbounds [12 x %struct.AVBPrint], ptr %9, i64 0, i64 %12
  %14 = load ptr, ptr %13, align 8, !tbaa !22
  tail call void (ptr, ptr, ...) @writer_printf(ptr noundef nonnull %0, ptr noundef nonnull @.str.13, ptr noundef %14, ptr noundef %1)
  br label %15

15:                                               ; preds = %8, %3
  tail call void (ptr, ptr, ...) @writer_printf(ptr noundef nonnull %0, ptr noundef nonnull @.str.15, ptr noundef %2)
  ret void
}